target datalayout = "e-m:e-p270:32:32-p271:32:32-p272:64:64-i64:64-i128:128-f80:128-n8:16:32:64-S128"
target triple = "x86_64-pc-linux-gnu"

%struct.RBasic = type { i64, i64 }
%struct.ar_table_struct = type { %union.anon.15, [8 x %struct.ar_table_pair_struct] }
%union.anon.15 = type { i64 }
%struct.ar_table_pair_struct = type { i64, i64 }

; Function Attrs: inlinehint nounwind sspstrong uwtable
define internal i32 @RHASH_AR_TABLE_BOUND(i64 noundef %0) #2 {
  %2 = alloca i64, align 8
  %3 = alloca i32, align 4
  store i64 %0, ptr %2, align 8, !tbaa !7
  call void @llvm.lifetime.start.p0(i64 4, ptr %3) #28
  %4 = load i64, ptr %2, align 8, !tbaa !7
  %5 = inttoptr i64 %4 to ptr
  %6 = getelementptr inbounds nuw %struct.RBasic, ptr %5, i32 0, i32 0
  %7 = load i64, ptr %6, align 8, !tbaa !64
  %8 = lshr i64 %7, 20
  %9 = and i64 %8, 15
  %10 = trunc i64 %9 to i32
  store i32 %10, ptr %3, align 4, !tbaa !16
  %11 = load i32, ptr %3, align 4, !tbaa !16
  call void @llvm.lifetime.end.p0(i64 4, ptr %3) #28
  ret i32 %11
}

; Function Attrs: inlinehint nounwind sspstrong uwtable
define internal void @RHASH_AR_TABLE_BOUND_SET(i64 noundef %0, i64 noundef %1) #2 {
  %3 = alloca i64, align 8
  %4 = alloca i64, align 8
  store i64 %0, ptr %3, align 8, !tbaa !7
  store i64 %1, ptr %4, align 8, !tbaa !7
  %5 = load i64, ptr %3, align 8, !tbaa !7
  %6 = inttoptr i64 %5 to ptr
  %7 = getelementptr inbounds nuw %struct.RBasic, ptr %6, i32 0, i32 0
  %8 = load i64, ptr %7, align 8, !tbaa !64
  %9 = and i64 %8, -15728641
  store i64 %9, ptr %7, align 8, !tbaa !64
  %10 = load i64, ptr %4, align 8, !tbaa !7
  %11 = shl i64 %10, 20
  %12 = load i64, ptr %3, align 8, !tbaa !7
  %13 = inttoptr i64 %12 to ptr
  %14 = getelementptr inbounds nuw %struct.RBasic, ptr %13, i32 0, i32 0
  %15 = load i64, ptr %14, align 8, !tbaa !64
  %16 = or i64 %15, %11
  store i64 %16, ptr %14, align 8, !tbaa !64
  ret void
}

; Function Attrs: inlinehint nounwind sspstrong uwtable
define internal void @RHASH_AR_TABLE_SIZE_SET(i64 noundef %0, i64 noundef %1) #2 {
  %3 = alloca i64, align 8
  %4 = alloca i64, align 8
  store i64 %0, ptr %3, align 8, !tbaa !7
  store i64 %1, ptr %4, align 8, !tbaa !7
  %5 = load i64, ptr %3, align 8, !tbaa !7
  %6 = inttoptr i64 %5 to ptr
  %7 = getelementptr inbounds nuw %struct.RBasic, ptr %6, i32 0, i32 0
  %8 = load i64, ptr %7, align 8, !tbaa !64
  %9 = and i64 %8, -983041
  store i64 %9, ptr %7, align 8, !tbaa !64
  %10 = load i64, ptr %4, align 8, !tbaa !7
  %11 = shl i64 %10, 16
  %12 = load i64, ptr %3, align 8, !tbaa !7
  %13 = inttoptr i64 %12 to ptr
  %14 = getelementptr inbounds nuw %struct.RBasic, ptr %13, i32 0, i32 0
  %15 = load i64, ptr %14, align 8, !tbaa !64
  %16 = or i64 %15, %11
  store i64 %16, ptr %14, align 8, !tbaa !64
  ret void
}

; Function Attrs: inlinehint nounwind sspstrong uwtable
define internal i32 @RHASH_AR_TABLE_SIZE_RAW(i64 noundef %0) #2 {
  %2 = alloca i64, align 8
  %3 = alloca i64, align 8
  store i64 %0, ptr %2, align 8, !tbaa !7
  call void @llvm.lifetime.start.p0(i64 8, ptr %3) #28
  %4 = load i64, ptr %2, align 8, !tbaa !7
  %5 = call i64 @RB_FL_TEST_RAW(i64 noundef %4, i64 noundef 983040) #26
  store i64 %5, ptr %3, align 8, !tbaa !7
  %6 = load i64, ptr %3, align 8, !tbaa !7
  %7 = lshr i64 %6, 16
  store i64 %7, ptr %3, align 8, !tbaa !7
  %8 = load i64, ptr %3, align 8, !tbaa !7
  %9 = trunc i64 %8 to i32
  call void @llvm.lifetime.end.p0(i64 8, ptr %3) #28
  ret i32 %9
}

; Function Attrs: inlinehint nounwind sspstrong uwtable
define internal void @ar_hint_set_hint(i64 noundef %0, i32 noundef %1, i8 noundef zeroext %2) #2 {
  %4 = alloca i64, align 8
  %5 = alloca i32, align 4
  %6 = alloca i8, align 1
  store i64 %0, ptr %4, align 8, !tbaa !7
  store i32 %1, ptr %5, align 4, !tbaa !16
  store i8 %2, ptr %6, align 1, !tbaa !22
  %7 = load i8, ptr %6, align 1, !tbaa !22
  %8 = load i64, ptr %4, align 8, !tbaa !7
  %9 = call nonnull ptr @RHASH_AR_TABLE(i64 noundef %8)
  %10 = getelementptr inbounds nuw %struct.ar_table_struct, ptr %9, i32 0, i32 0
  %11 = load i32, ptr %5, align 4, !tbaa !16
  %12 = zext i32 %11 to i64
  %13 = getelementptr [8 x i8], ptr %10, i64 0, i64 %12
  store i8 %7, ptr %13, align 1, !tbaa !22
  ret void
}

; Function Attrs: nounwind sspstrong uwtable
define internal i32 @ar_find_entry_hint(i64 noundef %0, i8 noundef zeroext %1, i64 noundef %2) #0 {
  %4 = alloca i32, align 4
  %5 = alloca i64, align 8
  %6 = alloca i8, align 1
  %7 = alloca i64, align 8
  %8 = alloca i32, align 4
  %9 = alloca i32, align 4
  %10 = alloca ptr, align 8
  %11 = alloca ptr, align 8
  %12 = alloca i32, align 4
  store i64 %0, ptr %5, align 8, !tbaa !7
  store i8 %1, ptr %6, align 1, !tbaa !22
  store i64 %2, ptr %7, align 8, !tbaa !7
  call void @llvm.lifetime.start.p0(i64 4, ptr %8) #28
  call void @llvm.lifetime.start.p0(i64 4, ptr %9) #28
  %13 = load i64, ptr %5, align 8, !tbaa !7
  %14 = call i32 @RHASH_AR_TABLE_BOUND(i64 noundef %13)
  store i32 %14, ptr %9, align 4, !tbaa !16
  call void @llvm.lifetime.start.p0(i64 8, ptr %10) #28
  %15 = load i64, ptr %5, align 8, !tbaa !7
  %16 = call nonnull ptr @RHASH_AR_TABLE(i64 noundef %15)
  %17 = getelementptr inbounds nuw %struct.ar_table_struct, ptr %16, i32 0, i32 0
  %18 = getelementptr inbounds [8 x i8], ptr %17, i64 0, i64 0
  store ptr %18, ptr %10, align 8, !tbaa !14
  store i32 0, ptr %8, align 4, !tbaa !16
  br label %19

19:                                               ; preds = %54, %3
  %20 = load i32, ptr %8, align 4, !tbaa !16
  %21 = load i32, ptr %9, align 4, !tbaa !16
  %22 = icmp ult i32 %20, %21
  br i1 %22, label %23, label %57

23:                                               ; preds = %19
  %24 = load ptr, ptr %10, align 8, !tbaa !14
  %25 = load i32, ptr %8, align 4, !tbaa !16
  %26 = zext i32 %25 to i64
  %27 = getelementptr i8, ptr %24, i64 %26
  %28 = load i8, ptr %27, align 1, !tbaa !22
  %29 = zext i8 %28 to i32
  %30 = load i8, ptr %6, align 1, !tbaa !22
  %31 = zext i8 %30 to i32
  %32 = icmp eq i32 %29, %31
  br i1 %32, label %33, label %53

33:                                               ; preds = %23
  call void @llvm.lifetime.start.p0(i64 8, ptr %11) #28
  %34 = load i64, ptr %5, align 8, !tbaa !7
  %35 = call nonnull ptr @RHASH_AR_TABLE(i64 noundef %34)
  %36 = getelementptr inbounds nuw %struct.ar_table_struct, ptr %35, i32 0, i32 1
  %37 = load i32, ptr %8, align 4, !tbaa !16
  %38 = zext i32 %37 to i64
  %39 = getelementptr [8 x %struct.ar_table_pair_struct], ptr %36, i64 0, i64 %38
  store ptr %39, ptr %11, align 8, !tbaa !68
  %40 = load i64, ptr %7, align 8, !tbaa !7
  %41 = load ptr, ptr %11, align 8, !tbaa !68
  %42 = getelementptr inbounds nuw %struct.ar_table_pair_struct, ptr %41, i32 0, i32 0
  %43 = load i64, ptr %42, align 8, !tbaa !70
  %44 = call i32 @ar_equal(i64 noundef %40, i64 noundef %43)
  %45 = icmp ne i32 %44, 0
  br i1 %45, label %46, label %48

46:                                               ; preds = %33
  %47 = load i32, ptr %8, align 4, !tbaa !16
  store i32 %47, ptr %4, align 4
  store i32 1, ptr %12, align 4
  br label %50

48:                                               ; preds = %33
  br label %49

49:                                               ; preds = %48
  store i32 0, ptr %12, align 4
  br label %50

50:                                               ; preds = %49, %46
  call void @llvm.lifetime.end.p0(i64 8, ptr %11) #28
  %51 = load i32, ptr %12, align 4
  switch i32 %51, label %58 [
    i32 0, label %52
  ]

52:                                               ; preds = %50
  br label %53

53:                                               ; preds = %52, %23
  br label %54

54:                                               ; preds = %53
  %55 = load i32, ptr %8, align 4, !tbaa !16
  %56 = add i32 %55, 1
  store i32 %56, ptr %8, align 4, !tbaa !16
  br label %19, !llvm.loop !163

57:                                               ; preds = %19
  store i32 8, ptr %4, align 4
  store i32 1, ptr %12, align 4
  br label %58

58:                                               ; preds = %57, %50
  call void @llvm.lifetime.end.p0(i64 8, ptr %10) #28
  call void @llvm.lifetime.end.p0(i64 4, ptr %9) #28
  call void @llvm.lifetime.end.p0(i64 4, ptr %8) #28
  %59 = load i32, ptr %4, align 4
  ret i32 %59
}

; Function Attrs: inlinehint nounwind sspstrong uwtable
define internal zeroext i8 @ar_do_hash_hint(i64 noundef %0) #2 {
  %2 = alloca i64, align 8
  store i64 %0, ptr %2, align 8, !tbaa !7
  %3 = load i64, ptr %2, align 8, !tbaa !7
  %4 = trunc i64 %3 to i8
  ret i8 %4
}

; Function Attrs: nounwind sspstrong uwtable
define hidden i64 @rb_any_hash(i64 noundef %0) #0 {
  %2 = alloca i64, align 8
  store i64 %0, ptr %2, align 8, !tbaa !7
  %3 = load i64, ptr %2, align 8, !tbaa !7
  %4 = call i64 @any_hash(i64 noundef %3, ptr noundef @obj_any_hash)
  ret i64 %4
}

; Function Attrs: inlinehint nounwind sspstrong uwtable
define internal void @RHASH_AR_TABLE_SIZE_DEC(i64 noundef %0) #2 {
  %2 = alloca i64, align 8
  %3 = alloca i32, align 4
  store i64 %0, ptr %2, align 8, !tbaa !7
  call void @llvm.lifetime.start.p0(i64 4, ptr %3) #28
  %4 = load i64, ptr %2, align 8, !tbaa !7
  %5 = call i32 @RHASH_AR_TABLE_SIZE_RAW(i64 noundef %4)
  %6 = sub i32 %5, 1
  store i32 %6, ptr %3, align 4, !tbaa !16
  %7 = load i32, ptr %3, align 4, !tbaa !16
  %8 = icmp ne i32 %7, 0
  br i1 %8, label %9, label %13

9:                                                ; preds = %1
  %10 = load i64, ptr %2, align 8, !tbaa !7
  %11 = load i32, ptr %3, align 4, !tbaa !16
  %12 = sext i32 %11 to i64
  call void @RHASH_AR_TABLE_SIZE_SET(i64 noundef %10, i64 noundef %12)
  br label %16

13:                                               ; preds = %1
  %14 = load i64, ptr %2, align 8, !tbaa !7
  call void @RHASH_AR_TABLE_SIZE_SET(i64 noundef %14, i64 noundef 0)
  %15 = load i64, ptr %2, align 8, !tbaa !7
  call void @RHASH_AR_TABLE_BOUND_SET(i64 noundef %15, i64 noundef 0)
  br label %16

16:                                               ; preds = %13, %9
  call void @llvm.lifetime.end.p0(i64 4, ptr %3) #28
  ret void
}

; Function Attrs: inlinehint nounwind sspstrong uwtable
define internal void @ar_clear_entry(i64 noundef %0, i32 noundef %1) #2 {
  %3 = alloca i64, align 8
  %4 = alloca i32, align 4
  %5 = alloca ptr, align 8
  store i64 %0, ptr %3, align 8, !tbaa !7
  store i32 %1, ptr %4, align 4, !tbaa !16
  call void @llvm.lifetime.start.p0(i64 8, ptr %5) #28
  %6 = load i64, ptr %3, align 8, !tbaa !7
  %7 = call nonnull ptr @RHASH_AR_TABLE(i64 noundef %6)
  %8 = getelementptr inbounds nuw %struct.ar_table_struct, ptr %7, i32 0, i32 1
  %9 = load i32, ptr %4, align 4, !tbaa !16
  %10 = zext i32 %9 to i64
  %11 = getelementptr [8 x %struct.ar_table_pair_struct], ptr %8, i64 0, i64 %10
  store ptr %11, ptr %5, align 8, !tbaa !68
  %12 = load ptr, ptr %5, align 8, !tbaa !68
  %13 = getelementptr inbounds nuw %struct.ar_table_pair_struct, ptr %12, i32 0, i32 0
  store i64 36, ptr %13, align 8, !tbaa !70
  %14 = load i64, ptr %3, align 8, !tbaa !7
  %15 = load i32, ptr %4, align 4, !tbaa !16
  call void @ar_hint_set_hint(i64 noundef %14, i32 noundef %15, i8 noundef zeroext -1)
  call void @llvm.lifetime.end.p0(i64 8, ptr %5) #28
  ret void
}

; Function Attrs: inlinehint nounwind sspstrong uwtable
define internal nonnull ptr @RHASH_AR_TABLE(i64 noundef %0) #2 {
  %2 = alloca i64, align 8
  store i64 %0, ptr %2, align 8, !tbaa !7
  %3 = load i64, ptr %2, align 8, !tbaa !7
  %4 = add i64 %3, 24
  %5 = inttoptr i64 %4 to ptr
  ret ptr %5
}

; Function Attrs: nounwind sspstrong uwtable
define internal i32 @ar_find_entry(i64 noundef %0, i64 noundef %1, i64 noundef %2) #0 {
  %4 = alloca i64, align 8
  %5 = alloca i64, align 8
  %6 = alloca i64, align 8
  %7 = alloca i8, align 1
  store i64 %0, ptr %4, align 8, !tbaa !7
  store i64 %1, ptr %5, align 8, !tbaa !7
  store i64 %2, ptr %6, align 8, !tbaa !7
  call void @llvm.lifetime.start.p0(i64 1, ptr %7) #28
  %8 = load i64, ptr %5, align 8, !tbaa !7
  %9 = call zeroext i8 @ar_do_hash_hint(i64 noundef %8)
  store i8 %9, ptr %7, align 1, !tbaa !22
  %10 = load i64, ptr %4, align 8, !tbaa !7
  %11 = load i8, ptr %7, align 1, !tbaa !22
  %12 = load i64, ptr %6, align 8, !tbaa !7
  %13 = call i32 @ar_find_entry_hint(i64 noundef %10, i8 noundef zeroext %11, i64 noundef %12)
  call void @llvm.lifetime.end.p0(i64 1, ptr %7) #28
  ret i32 %13
}

; Function Attrs: inlinehint nounwind sspstrong uwtable
define internal i64 @ar_do_hash(i64 noundef %0) #2 {
  %2 = alloca i64, align 8
  store i64 %0, ptr %2, align 8, !tbaa !7
  %3 = load i64, ptr %2, align 8, !tbaa !7
  %4 = call i64 @rb_any_hash(i64 noundef %3)
  ret i64 %4
}

; Function Attrs: inlinehint nounwind sspstrong willreturn memory(read) uwtable
define internal i64 @RB_FL_TEST_RAW(i64 noundef %0, i64 noundef %1) #4 {
  %3 = alloca i64, align 8
  %4 = alloca i64, align 8
  store i64 %0, ptr %3, align 8, !tbaa !7
  store i64 %1, ptr %4, align 8, !tbaa !7
  %5 = load i64, ptr %3, align 8, !tbaa !7
  %6 = inttoptr i64 %5 to ptr
  %7 = getelementptr inbounds nuw %struct.RBasic, ptr %6, i32 0, i32 0
  %8 = load i64, ptr %7, align 8, !tbaa !64
  %9 = load i64, ptr %4, align 8, !tbaa !7
  %10 = and i64 %8, %9
  ret i64 %10
}

; Function Attrs: inlinehint nounwind sspstrong uwtable
define internal nonnull ptr @RHASH_ST_TABLE(i64 noundef %0) #2 {
  %2 = alloca i64, align 8
  store i64 %0, ptr %2, align 8, !tbaa !7
  %3 = load i64, ptr %2, align 8, !tbaa !7
  %4 = add i64 %3, 24
  %5 = inttoptr i64 %4 to ptr
  ret ptr %5
}

; Function Attrs: nounwind sspstrong uwtable
define internal i32 @ar_delete(i64 noundef %0, ptr noundef %1, ptr noundef %2) #0 {
  %4 = alloca i32, align 4
  %5 = alloca i64, align 8
  %6 = alloca ptr, align 8
  %7 = alloca ptr, align 8
  %8 = alloca i32, align 4
  %9 = alloca i64, align 8
  %10 = alloca i32, align 4
  %11 = alloca ptr, align 8
  store i64 %0, ptr %5, align 8, !tbaa !7
  store ptr %1, ptr %6, align 8, !tbaa !11
  store ptr %2, ptr %7, align 8, !tbaa !11
  call void @llvm.lifetime.start.p0(i64 4, ptr %8) #28
  call void @llvm.lifetime.start.p0(i64 8, ptr %9) #28
  %12 = load ptr, ptr %6, align 8, !tbaa !11
  %13 = load i64, ptr %12, align 8, !tbaa !7
  %14 = call i64 @ar_do_hash(i64 noundef %13)
  store i64 %14, ptr %9, align 8, !tbaa !7
  %15 = load i64, ptr %5, align 8, !tbaa !7
  %16 = call zeroext i1 @RHASH_AR_TABLE_P(i64 noundef %15)
  %17 = xor i1 %16, true
  %18 = xor i1 %17, true
  %19 = xor i1 %18, true
  %20 = zext i1 %19 to i32
  %21 = sext i32 %20 to i64
  %22 = call i64 @llvm.expect.i64(i64 %21, i64 0)
  %23 = icmp ne i64 %22, 0
  br i1 %23, label %24, label %30

24:                                               ; preds = %3
  %25 = load i64, ptr %5, align 8, !tbaa !7
  %26 = call nonnull ptr @RHASH_ST_TABLE(i64 noundef %25)
  %27 = load ptr, ptr %6, align 8, !tbaa !11
  %28 = load ptr, ptr %7, align 8, !tbaa !11
  %29 = call i32 @rb_st_delete(ptr noundef %26, ptr noundef %27, ptr noundef %28)
  store i32 %29, ptr %4, align 4
  store i32 1, ptr %10, align 4
  br label %62

30:                                               ; preds = %3
  %31 = load i64, ptr %5, align 8, !tbaa !7
  %32 = load i64, ptr %9, align 8, !tbaa !7
  %33 = load ptr, ptr %6, align 8, !tbaa !11
  %34 = load i64, ptr %33, align 8, !tbaa !7
  %35 = call i32 @ar_find_entry(i64 noundef %31, i64 noundef %32, i64 noundef %34)
  store i32 %35, ptr %8, align 4, !tbaa !16
  %36 = load i32, ptr %8, align 4, !tbaa !16
  %37 = icmp eq i32 %36, 8
  br i1 %37, label %38, label %44

38:                                               ; preds = %30
  %39 = load ptr, ptr %7, align 8, !tbaa !11
  %40 = icmp ne ptr %39, null
  br i1 %40, label %41, label %43

41:                                               ; preds = %38
  %42 = load ptr, ptr %7, align 8, !tbaa !11
  store i64 0, ptr %42, align 8, !tbaa !7
  br label %43

43:                                               ; preds = %41, %38
  store i32 0, ptr %4, align 4
  store i32 1, ptr %10, align 4
  br label %62

44:                                               ; preds = %30
  %45 = load ptr, ptr %7, align 8, !tbaa !11
  %46 = icmp ne ptr %45, null
  br i1 %46, label %47, label %58

47:                                               ; preds = %44
  call void @llvm.lifetime.start.p0(i64 8, ptr %11) #28
  %48 = load i64, ptr %5, align 8, !tbaa !7
  %49 = call nonnull ptr @RHASH_AR_TABLE(i64 noundef %48)
  %50 = getelementptr inbounds nuw %struct.ar_table_struct, ptr %49, i32 0, i32 1
  %51 = load i32, ptr %8, align 4, !tbaa !16
  %52 = zext i32 %51 to i64
  %53 = getelementptr [8 x %struct.ar_table_pair_struct], ptr %50, i64 0, i64 %52
  store ptr %53, ptr %11, align 8, !tbaa !68
  %54 = load ptr, ptr %11, align 8, !tbaa !68
  %55 = getelementptr inbounds nuw %struct.ar_table_pair_struct, ptr %54, i32 0, i32 1
  %56 = load i64, ptr %55, align 8, !tbaa !72
  %57 = load ptr, ptr %7, align 8, !tbaa !11
  store i64 %56, ptr %57, align 8, !tbaa !7
  call void @llvm.lifetime.end.p0(i64 8, ptr %11) #28
  br label %58

58:                                               ; preds = %47, %44
  %59 = load i64, ptr %5, align 8, !tbaa !7
  %60 = load i32, ptr %8, align 4, !tbaa !16
  call void @ar_clear_entry(i64 noundef %59, i32 noundef %60)
  %61 = load i64, ptr %5, align 8, !tbaa !7
  call void @RHASH_AR_TABLE_SIZE_DEC(i64 noundef %61)
  store i32 1, ptr %4, align 4
  store i32 1, ptr %10, align 4
  br label %62

62:                                               ; preds = %58, %43, %24
  call void @llvm.lifetime.end.p0(i64 8, ptr %9) #28
  call void @llvm.lifetime.end.p0(i64 4, ptr %8) #28
  %63 = load i32, ptr %4, align 4
  ret i32 %63
}

; Function Attrs: inlinehint nounwind sspstrong uwtable
define internal zeroext i1 @RHASH_AR_TABLE_P(i64 noundef %0) #2 {
  %2 = alloca i64, align 8
  store i64 %0, ptr %2, align 8, !tbaa !7
  %3 = load i64, ptr %2, align 8, !tbaa !7
  %4 = call i64 @RB_FL_TEST_RAW(i64 noundef %3, i64 noundef 32768) #26
  %5 = icmp ne i64 %4, 0
  %6 = xor i1 %5, true
  ret i1 %6
}

; Function Attrs: nounwind sspstrong uwtable
define hidden i32 @rb_hash_stlike_delete(i64 noundef %0, ptr noundef %1, ptr noundef %2) #0 {
  %4 = alloca i32, align 4
  %5 = alloca i64, align 8
  %6 = alloca ptr, align 8
  %7 = alloca ptr, align 8
  store i64 %0, ptr %5, align 8, !tbaa !7
  store ptr %1, ptr %6, align 8, !tbaa !11
  store ptr %2, ptr %7, align 8, !tbaa !11
  %8 = load i64, ptr %5, align 8, !tbaa !7
  %9 = call zeroext i1 @RHASH_AR_TABLE_P(i64 noundef %8)
  br i1 %9, label %10, label %15

10:                                               ; preds = %3
  %11 = load i64, ptr %5, align 8, !tbaa !7
  %12 = load ptr, ptr %6, align 8, !tbaa !11
  %13 = load ptr, ptr %7, align 8, !tbaa !11
  %14 = call i32 @ar_delete(i64 noundef %11, ptr noundef %12, ptr noundef %13)
  store i32 %14, ptr %4, align 4
  br label %21

15:                                               ; preds = %3
  %16 = load i64, ptr %5, align 8, !tbaa !7
  %17 = call nonnull ptr @RHASH_ST_TABLE(i64 noundef %16)
  %18 = load ptr, ptr %6, align 8, !tbaa !11
  %19 = load ptr, ptr %7, align 8, !tbaa !11
  %20 = call i32 @rb_st_delete(ptr noundef %17, ptr noundef %18, ptr noundef %19)
  store i32 %20, ptr %4, align 4
  br label %21

21:                                               ; preds = %15, %10
  %22 = load i32, ptr %4, align 4
  ret i32 %22
}