; Function Attrs: nounwind sspstrong uwtable
define hidden i32 @rb_hash_stlike_delete(i64 noundef %0, ptr noundef %1, ptr noundef %2) local_unnamed_addr #0 {
  %4 = inttoptr i64 %0 to ptr
  %5 = load i64, ptr %4, align 8, !tbaa !11
  %6 = and i64 %5, 32768
  %.not.i = icmp eq i64 %6, 0
  br i1 %.not.i, label %7, label %57

7:                                                ; preds = %3
  %8 = load i64, ptr %1, align 8, !tbaa !7
  %9 = tail call fastcc range(i64 -4611686018427387904, 4611686018427387904) i64 @any_hash(i64 noundef %8, ptr noundef nonnull @obj_any_hash)
  %10 = load i64, ptr %4, align 8, !tbaa !11
  %11 = and i64 %10, 32768
  %.not.i.i = icmp eq i64 %11, 0
  br i1 %.not.i.i, label %16, label %12, !prof !59

12:                                               ; preds = %7
  %13 = add i64 %0, 24
  %14 = inttoptr i64 %13 to ptr
  %15 = tail call i32 @rb_st_delete(ptr noundef nonnull %14, ptr noundef nonnull %1, ptr noundef %2) #28
  br label %ar_delete.exit

16:                                               ; preds = %7
  %17 = load i64, ptr %1, align 8, !tbaa !7
  %18 = trunc i64 %9 to i8
  %19 = trunc i64 %10 to i32
  %20 = lshr i32 %19, 20
  %21 = and i32 %20, 15
  %22 = add i64 %0, 24
  %23 = inttoptr i64 %22 to ptr
  %24 = getelementptr inbounds nuw i8, ptr %23, i64 8
  %.not19.i.i.i = icmp eq i32 %21, 0
  br i1 %.not19.i.i.i, label %ar_find_entry.exit.thread.i, label %.lr.ph.preheader.i.i.i

.lr.ph.preheader.i.i.i:                           ; preds = %16
  %wide.trip.count.i.i.i = zext nneg i32 %21 to i64
  br label %.lr.ph.i.i.i

.lr.ph.i.i.i:                                     ; preds = %32, %.lr.ph.preheader.i.i.i
  %indvars.iv.i.i.i = phi i64 [ 0, %.lr.ph.preheader.i.i.i ], [ %indvars.iv.next.i.i.i, %32 ]
  %25 = getelementptr i8, ptr %23, i64 %indvars.iv.i.i.i
  %26 = load i8, ptr %25, align 1, !tbaa !22
  %27 = icmp eq i8 %26, %18
  br i1 %27, label %28, label %32

28:                                               ; preds = %.lr.ph.i.i.i
  %29 = getelementptr [8 x %struct.ar_table_pair_struct], ptr %24, i64 0, i64 %indvars.iv.i.i.i
  %30 = load i64, ptr %29, align 8, !tbaa !45
  %31 = tail call fastcc i32 @ar_equal(i64 noundef %17, i64 noundef %30)
  %.not.i.i.i = icmp eq i32 %31, 0
  br i1 %.not.i.i.i, label %32, label %ar_find_entry.exit.i

32:                                               ; preds = %28, %.lr.ph.i.i.i
  %indvars.iv.next.i.i.i = add nuw nsw i64 %indvars.iv.i.i.i, 1
  %exitcond.not.i.i.i = icmp eq i64 %indvars.iv.next.i.i.i, %wide.trip.count.i.i.i
  br i1 %exitcond.not.i.i.i, label %ar_find_entry.exit.thread.i, label %.lr.ph.i.i.i, !llvm.loop !54

ar_find_entry.exit.i:                             ; preds = %28
  %33 = icmp eq i64 %indvars.iv.i.i.i, 8
  br i1 %33, label %ar_find_entry.exit.thread.i, label %35

ar_find_entry.exit.thread.i:                      ; preds = %32, %ar_find_entry.exit.i, %16
  %.not21.i = icmp eq ptr %2, null
  br i1 %.not21.i, label %ar_delete.exit, label %34

34:                                               ; preds = %ar_find_entry.exit.thread.i
  store i64 0, ptr %2, align 8, !tbaa !7
  br label %ar_delete.exit

35:                                               ; preds = %ar_find_entry.exit.i
  %.not.i7 = icmp eq ptr %2, null
  br i1 %.not.i7, label %41, label %36

36:                                               ; preds = %35
  %37 = shl i64 %indvars.iv.i.i.i, 4
  %.idx.i = and i64 %37, 68719476720
  %38 = getelementptr i8, ptr %23, i64 16
  %39 = getelementptr i8, ptr %38, i64 %.idx.i
  %40 = load i64, ptr %39, align 8, !tbaa !47
  store i64 %40, ptr %2, align 8, !tbaa !7
  br label %41

41:                                               ; preds = %36, %35
  %42 = and i64 %indvars.iv.i.i.i, 4294967295
  %43 = getelementptr [8 x %struct.ar_table_pair_struct], ptr %24, i64 0, i64 %42
  store i64 36, ptr %43, align 8, !tbaa !45
  %44 = getelementptr [8 x i8], ptr %23, i64 0, i64 %42
  store i8 -1, ptr %44, align 1, !tbaa !22
  %45 = load i64, ptr %4, align 8, !tbaa !11
  %46 = trunc i64 %45 to i32
  %47 = lshr i32 %46, 16
  %48 = and i32 %47, 15
  %49 = add nsw i32 %48, -1
  %.not.i22.i = icmp eq i32 %49, 0
  br i1 %.not.i22.i, label %55, label %50

50:                                               ; preds = %41
  %51 = sext i32 %49 to i64
  %52 = and i64 %45, -983041
  %53 = shl nsw i64 %51, 16
  %54 = or i64 %53, %52
  br label %RHASH_AR_TABLE_SIZE_DEC.exit.i

55:                                               ; preds = %41
  %56 = and i64 %45, -16711681
  br label %RHASH_AR_TABLE_SIZE_DEC.exit.i

RHASH_AR_TABLE_SIZE_DEC.exit.i:                   ; preds = %55, %50
  %storemerge.i.i = phi i64 [ %54, %50 ], [ %56, %55 ]
  store i64 %storemerge.i.i, ptr %4, align 8, !tbaa !11
  br label %ar_delete.exit

57:                                               ; preds = %3
  %58 = add i64 %0, 24
  %59 = inttoptr i64 %58 to ptr
  %60 = tail call i32 @rb_st_delete(ptr noundef nonnull %59, ptr noundef %1, ptr noundef %2) #28
  br label %ar_delete.exit

ar_delete.exit:                                   ; preds = %RHASH_AR_TABLE_SIZE_DEC.exit.i, %34, %ar_find_entry.exit.thread.i, %12, %57
  %.0 = phi i32 [ %60, %57 ], [ %15, %12 ], [ 1, %RHASH_AR_TABLE_SIZE_DEC.exit.i ], [ 0, %34 ], [ 0, %ar_find_entry.exit.thread.i ]
  ret i32 %.0
}